; Function Attrs: nounwind uwtable
define range(i32 -1, 1) i32 @H5S_sel_iter_close(ptr noundef %0) local_unnamed_addr #3 {
  %2 = load ptr, ptr %0, align 8
  %3 = getelementptr inbounds i8, ptr %2, i64 64
  %4 = load ptr, ptr %3, align 8
  %5 = tail call i32 %4(ptr noundef nonnull %0) #7
  %6 = icmp slt i32 %5, 0
  br i1 %6, label %7, label %11

7:                                                ; preds = %1
  %8 = load i64, ptr @H5E_DATASPACE_g, align 8
  %9 = load i64, ptr @H5E_CANTRELEASE_g, align 8
  %10 = tail call i32 (ptr, ptr, i32, i64, i64, ptr, ...) @H5E_printf_stack(ptr noundef nonnull @.str.1, ptr noundef nonnull @__func__.H5S_sel_iter_close, i32 noundef 3093, i64 noundef %8, i64 noundef %9, ptr noundef nonnull @.str.96) #7
  br label %13

11:                                               ; preds = %1
  %12 = tail call ptr @H5FL_reg_free(ptr noundef nonnull @H5_H5S_sel_iter_t_reg_free_list, ptr noundef nonnull %0) #7
  br label %13

13:                                               ; preds = %11, %7
  %.0 = phi i32 [ -1, %7 ], [ 0, %11 ]
  ret i32 %.0
}